target datalayout = "e-m:e-p270:32:32-p271:32:32-p272:64:64-i64:64-i128:128-f80:128-n8:16:32:64-S128"
target triple = "x86_64-pc-linux-gnu"

%struct.lhash_st = type { ptr, ptr, ptr, ptr, ptr, ptr, ptr, i32, i32, i32, i32, i64, i64, i64, i32 }
%struct.lhash_node_st = type { ptr, ptr, i64 }

; Function Attrs: nounwind uwtable
define internal void @doall_util_fn(ptr noundef %0, i32 noundef %1, ptr noundef %2, ptr noundef %3, ptr noundef %4, ptr noundef %5, ptr noundef %6) #0 {
  %8 = alloca ptr, align 8
  %9 = alloca i32, align 4
  %10 = alloca ptr, align 8
  %11 = alloca ptr, align 8
  %12 = alloca ptr, align 8
  %13 = alloca ptr, align 8
  %14 = alloca ptr, align 8
  %15 = alloca i32, align 4
  %16 = alloca ptr, align 8
  %17 = alloca ptr, align 8
  %18 = alloca i32, align 4
  store ptr %0, ptr %8, align 8, !tbaa !3
  store i32 %1, ptr %9, align 4, !tbaa !29
  store ptr %2, ptr %10, align 8, !tbaa !8
  store ptr %3, ptr %11, align 8, !tbaa !8
  store ptr %4, ptr %12, align 8, !tbaa !8
  store ptr %5, ptr %13, align 8, !tbaa !8
  store ptr %6, ptr %14, align 8, !tbaa !8
  call void @llvm.lifetime.start.p0(i64 4, ptr %15) #5
  call void @llvm.lifetime.start.p0(i64 8, ptr %16) #5
  call void @llvm.lifetime.start.p0(i64 8, ptr %17) #5
  %19 = load ptr, ptr %8, align 8, !tbaa !3
  %20 = icmp eq ptr %19, null
  br i1 %20, label %21, label %22

21:                                               ; preds = %7
  store i32 1, ptr %18, align 4
  br label %67

22:                                               ; preds = %7
  %23 = load ptr, ptr %8, align 8, !tbaa !3
  %24 = getelementptr inbounds nuw %struct.lhash_st, ptr %23, i32 0, i32 7
  %25 = load i32, ptr %24, align 8, !tbaa !20
  %26 = sub i32 %25, 1
  store i32 %26, ptr %15, align 4, !tbaa !29
  br label %27

27:                                               ; preds = %63, %22
  %28 = load i32, ptr %15, align 4, !tbaa !29
  %29 = icmp sge i32 %28, 0
  br i1 %29, label %30, label %66

30:                                               ; preds = %27
  %31 = load ptr, ptr %8, align 8, !tbaa !3
  %32 = getelementptr inbounds nuw %struct.lhash_st, ptr %31, i32 0, i32 0
  %33 = load ptr, ptr %32, align 8, !tbaa !17
  %34 = load i32, ptr %15, align 4, !tbaa !29
  %35 = sext i32 %34 to i64
  %36 = getelementptr inbounds ptr, ptr %33, i64 %35
  %37 = load ptr, ptr %36, align 8, !tbaa !32
  store ptr %37, ptr %16, align 8, !tbaa !32
  br label %38

38:                                               ; preds = %60, %30
  %39 = load ptr, ptr %16, align 8, !tbaa !32
  %40 = icmp ne ptr %39, null
  br i1 %40, label %41, label %62

41:                                               ; preds = %38
  %42 = load ptr, ptr %16, align 8, !tbaa !32
  %43 = getelementptr inbounds nuw %struct.lhash_node_st, ptr %42, i32 0, i32 1
  %44 = load ptr, ptr %43, align 8, !tbaa !34
  store ptr %44, ptr %17, align 8, !tbaa !32
  %45 = load i32, ptr %9, align 4, !tbaa !29
  %46 = icmp ne i32 %45, 0
  br i1 %46, label %47, label %54

47:                                               ; preds = %41
  %48 = load ptr, ptr %13, align 8, !tbaa !8
  %49 = load ptr, ptr %16, align 8, !tbaa !32
  %50 = getelementptr inbounds nuw %struct.lhash_node_st, ptr %49, i32 0, i32 0
  %51 = load ptr, ptr %50, align 8, !tbaa !41
  %52 = load ptr, ptr %14, align 8, !tbaa !8
  %53 = load ptr, ptr %12, align 8, !tbaa !8
  call void %48(ptr noundef %51, ptr noundef %52, ptr noundef %53)
  br label %60

54:                                               ; preds = %41
  %55 = load ptr, ptr %10, align 8, !tbaa !8
  %56 = load ptr, ptr %16, align 8, !tbaa !32
  %57 = getelementptr inbounds nuw %struct.lhash_node_st, ptr %56, i32 0, i32 0
  %58 = load ptr, ptr %57, align 8, !tbaa !41
  %59 = load ptr, ptr %11, align 8, !tbaa !8
  call void %55(ptr noundef %58, ptr noundef %59)
  br label %60

60:                                               ; preds = %54, %47
  %61 = load ptr, ptr %17, align 8, !tbaa !32
  store ptr %61, ptr %16, align 8, !tbaa !32
  br label %38, !llvm.loop !49

62:                                               ; preds = %38
  br label %63

63:                                               ; preds = %62
  %64 = load i32, ptr %15, align 4, !tbaa !29
  %65 = add nsw i32 %64, -1
  store i32 %65, ptr %15, align 4, !tbaa !29
  br label %27, !llvm.loop !50

66:                                               ; preds = %27
  store i32 0, ptr %18, align 4
  br label %67

67:                                               ; preds = %66, %21
  call void @llvm.lifetime.end.p0(i64 8, ptr %17) #5
  call void @llvm.lifetime.end.p0(i64 8, ptr %16) #5
  call void @llvm.lifetime.end.p0(i64 4, ptr %15) #5
  %68 = load i32, ptr %18, align 4
  switch i32 %68, label %70 [
    i32 0, label %69
    i32 1, label %69
  ]

69:                                               ; preds = %67, %67
  ret void

70:                                               ; preds = %67
  unreachable
}

; Function Attrs: nounwind uwtable
define void @OPENSSL_LH_doall_arg(ptr noundef %0, ptr noundef %1, ptr noundef %2) #0 {
  %4 = alloca ptr, align 8
  %5 = alloca ptr, align 8
  %6 = alloca ptr, align 8
  store ptr %0, ptr %4, align 8, !tbaa !3
  store ptr %1, ptr %5, align 8, !tbaa !8
  store ptr %2, ptr %6, align 8, !tbaa !8
  %7 = load ptr, ptr %4, align 8, !tbaa !3
  %8 = icmp eq ptr %7, null
  br i1 %8, label %9, label %10

9:                                                ; preds = %3
  br label %17

10:                                               ; preds = %3
  %11 = load ptr, ptr %4, align 8, !tbaa !3
  %12 = load ptr, ptr %5, align 8, !tbaa !8
  %13 = load ptr, ptr %4, align 8, !tbaa !3
  %14 = getelementptr inbounds nuw %struct.lhash_st, ptr %13, i32 0, i32 6
  %15 = load ptr, ptr %14, align 8, !tbaa !16
  %16 = load ptr, ptr %6, align 8, !tbaa !8
  call void @doall_util_fn(ptr noundef %11, i32 noundef 1, ptr noundef null, ptr noundef null, ptr noundef %12, ptr noundef %15, ptr noundef %16)
  br label %17

17:                                               ; preds = %10, %9
  ret void
}