; Function Attrs: nounwind uwtable
define void @OPENSSL_LH_doall_arg(ptr noundef readonly captures(address_is_null) %0, ptr noundef %1, ptr noundef %2) local_unnamed_addr #1 {
  %4 = icmp eq ptr %0, null
  br i1 %4, label %doall_util_fn.exit, label %5

5:                                                ; preds = %3
  %6 = getelementptr inbounds nuw i8, ptr %0, i64 48
  %7 = load ptr, ptr %6, align 8, !tbaa !13
  %8 = getelementptr inbounds nuw i8, ptr %0, i64 56
  %9 = load i32, ptr %8, align 8, !tbaa !17
  %.022.i = add i32 %9, -1
  %10 = icmp sgt i32 %.022.i, -1
  br i1 %10, label %.lr.ph24.i, label %doall_util_fn.exit

.lr.ph24.i:                                       ; preds = %5
  %11 = zext nneg i32 %.022.i to i64
  br label %.lr.ph24.split.i

.loopexit.i:                                      ; preds = %.lr.ph.i, %.lr.ph24.split.i
  %indvars.iv.next.i = add nsw i64 %indvars.iv.i, -1
  %12 = icmp sgt i64 %indvars.iv.i, 0
  br i1 %12, label %.lr.ph24.split.i, label %doall_util_fn.exit, !llvm.loop !39

.lr.ph24.split.i:                                 ; preds = %.loopexit.i, %.lr.ph24.i
  %indvars.iv.i = phi i64 [ %indvars.iv.next.i, %.loopexit.i ], [ %11, %.lr.ph24.i ]
  %13 = load ptr, ptr %0, align 8, !tbaa !14
  %14 = getelementptr inbounds nuw ptr, ptr %13, i64 %indvars.iv.i
  %15 = load ptr, ptr %14, align 8, !tbaa !25
  %.not20.i = icmp eq ptr %15, null
  br i1 %.not20.i, label %.loopexit.i, label %.lr.ph.i

.lr.ph.i:                                         ; preds = %.lr.ph24.split.i, %.lr.ph.i
  %.01621.i = phi ptr [ %17, %.lr.ph.i ], [ %15, %.lr.ph24.split.i ]
  %16 = getelementptr inbounds nuw i8, ptr %.01621.i, i64 8
  %17 = load ptr, ptr %16, align 8, !tbaa !27
  %18 = load ptr, ptr %.01621.i, align 8, !tbaa !36
  tail call void %7(ptr noundef %18, ptr noundef %2, ptr noundef %1) #7
  %.not.i = icmp eq ptr %17, null
  br i1 %.not.i, label %.loopexit.i, label %.lr.ph.i, !llvm.loop !40

doall_util_fn.exit:                               ; preds = %.loopexit.i, %5, %3
  ret void
}